target datalayout = "e-m:e-p270:32:32-p271:32:32-p272:64:64-i64:64-i128:128-f80:128-n8:16:32:64-S128"
target triple = "x86_64-pc-linux-gnu"

; Function Attrs: nounwind uwtable
define zeroext i8 @Java_sun_awt_X11_XlibWrapper_XkbTranslateKeyCode(ptr noundef %0, ptr noundef %1, i64 noundef %2, i32 noundef %3, i64 noundef %4, i64 noundef %5, i64 noundef %6) #0 {
  %8 = alloca ptr, align 8
  %9 = alloca ptr, align 8
  %10 = alloca i64, align 8
  %11 = alloca i32, align 4
  %12 = alloca i64, align 8
  %13 = alloca i64, align 8
  %14 = alloca i64, align 8
  %15 = alloca i32, align 4
  store ptr %0, ptr %8, align 8
  store ptr %1, ptr %9, align 8
  store i64 %2, ptr %10, align 8
  store i32 %3, ptr %11, align 4
  store i64 %4, ptr %12, align 8
  store i64 %5, ptr %13, align 8
  store i64 %6, ptr %14, align 8
  %16 = load i64, ptr %10, align 8
  %17 = inttoptr i64 %16 to ptr
  %18 = load i32, ptr %11, align 4
  %19 = trunc i32 %18 to i8
  %20 = load i64, ptr %12, align 8
  %21 = trunc i64 %20 to i32
  %22 = load i64, ptr %13, align 8
  %23 = inttoptr i64 %22 to ptr
  %24 = load i64, ptr %14, align 8
  %25 = inttoptr i64 %24 to ptr
  %26 = call i32 @XkbTranslateKeyCode(ptr noundef %17, i8 noundef zeroext %19, i32 noundef %21, ptr noundef %23, ptr noundef %25)
  store i32 %26, ptr %15, align 4
  %27 = load i32, ptr %15, align 4
  %28 = icmp ne i32 %27, 0
  %29 = select i1 %28, i32 1, i32 0
  %30 = trunc i32 %29 to i8
  ret i8 %30
}