; Function Attrs: nounwind uwtable
define zeroext range(i8 0, 2) i8 @Java_sun_awt_X11_XlibWrapper_XkbTranslateKeyCode(ptr nocapture noundef readnone %0, ptr nocapture noundef readnone %1, i64 noundef %2, i32 noundef %3, i64 noundef %4, i64 noundef %5, i64 noundef %6) local_unnamed_addr #0 {
  %8 = inttoptr i64 %2 to ptr
  %9 = trunc i32 %3 to i8
  %10 = trunc i64 %4 to i32
  %11 = inttoptr i64 %5 to ptr
  %12 = inttoptr i64 %6 to ptr
  %13 = tail call i32 @XkbTranslateKeyCode(ptr noundef %8, i8 noundef zeroext %9, i32 noundef %10, ptr noundef %11, ptr noundef %12) #14
  %.not = icmp ne i32 %13, 0
  %14 = zext i1 %.not to i8
  ret i8 %14
}